target datalayout = "e-m:e-p270:32:32-p271:32:32-p272:64:64-i64:64-i128:128-f80:128-n8:16:32:64-S128"
target triple = "x86_64-pc-linux-gnu"

%struct.SDL_AtomicInt = type { i32 }
%struct.SDL_LogicalAudioDevice = type { i32, ptr, %struct.SDL_AtomicInt, float, ptr, i8, i8, ptr, ptr, ptr, ptr, ptr, ptr, ptr }

@.str = private unnamed_addr constant [26 x i8] c"Parameter '%s' is invalid\00", align 1
@.str.16 = private unnamed_addr constant [5 x i8] c"gain\00", align 1

; Function Attrs: nounwind uwtable
define hidden zeroext i1 @SDL_SetAudioDeviceGain_REAL(i32 noundef %0, float noundef %1) #0 {
  %3 = alloca i1, align 1
  %4 = alloca i32, align 4
  %5 = alloca float, align 4
  %6 = alloca ptr, align 8
  %7 = alloca ptr, align 8
  %8 = alloca i8, align 1
  store i32 %0, ptr %4, align 4
  store float %1, ptr %5, align 4
  %9 = load float, ptr %5, align 4
  %10 = fcmp olt float %9, 0.000000e+00
  br i1 %10, label %11, label %13

11:                                               ; preds = %2
  %12 = call zeroext i1 (ptr, ...) @SDL_SetError_REAL(ptr noundef @.str, ptr noundef @.str.16)
  store i1 %12, ptr %3, align 1
  br label %27

13:                                               ; preds = %2
  call void @llvm.lifetime.start.p0(i64 8, ptr %6) #6
  store ptr null, ptr %6, align 8
  call void @llvm.lifetime.start.p0(i64 8, ptr %7) #6
  %14 = load i32, ptr %4, align 4
  %15 = call ptr @ObtainLogicalAudioDevice(i32 noundef %14, ptr noundef %6)
  store ptr %15, ptr %7, align 8
  call void @llvm.lifetime.start.p0(i64 1, ptr %8) #6
  store i8 0, ptr %8, align 1
  %16 = load ptr, ptr %7, align 8
  %17 = icmp ne ptr %16, null
  br i1 %17, label %18, label %23

18:                                               ; preds = %13
  %19 = load float, ptr %5, align 4
  %20 = load ptr, ptr %7, align 8
  %21 = getelementptr inbounds nuw %struct.SDL_LogicalAudioDevice, ptr %20, i32 0, i32 3
  store float %19, ptr %21, align 4
  %22 = load ptr, ptr %6, align 8
  call void @UpdateAudioStreamFormatsPhysical(ptr noundef %22)
  store i8 1, ptr %8, align 1
  br label %23

23:                                               ; preds = %18, %13
  %24 = load ptr, ptr %6, align 8
  call void @ReleaseAudioDevice(ptr noundef %24)
  %25 = load i8, ptr %8, align 1, !range !5, !noundef !6
  %26 = trunc i8 %25 to i1
  store i1 %26, ptr %3, align 1
  call void @llvm.lifetime.end.p0(i64 1, ptr %8) #6
  call void @llvm.lifetime.end.p0(i64 8, ptr %7) #6
  call void @llvm.lifetime.end.p0(i64 8, ptr %6) #6
  br label %27

27:                                               ; preds = %23, %11
  %28 = load i1, ptr %3, align 1
  ret i1 %28
}