; Function Attrs: nounwind uwtable
define hidden zeroext i1 @SDL_SetAudioDeviceGain_REAL(i32 noundef %0, float noundef %1) local_unnamed_addr #0 {
  %3 = alloca ptr, align 8
  %4 = fcmp olt float %1, 0.000000e+00
  br i1 %4, label %5, label %7

5:                                                ; preds = %2
  %6 = tail call zeroext i1 (ptr, ...) @SDL_SetError_REAL(ptr noundef nonnull @.str, ptr noundef nonnull @.str.16) #14
  br label %12

7:                                                ; preds = %2
  call void @llvm.lifetime.start.p0(i64 8, ptr nonnull %3) #14
  store ptr null, ptr %3, align 8
  %8 = call fastcc ptr @ObtainLogicalAudioDevice(i32 noundef %0, ptr noundef %3)
  %.not = icmp ne ptr %8, null
  %.pre = load ptr, ptr %3, align 8
  br i1 %.not, label %9, label %11

9:                                                ; preds = %7
  %10 = getelementptr inbounds nuw i8, ptr %8, i64 20
  store float %1, ptr %10, align 4
  tail call fastcc void @UpdateAudioStreamFormatsPhysical(ptr noundef %.pre)
  br label %11

11:                                               ; preds = %9, %7
  tail call fastcc void @ReleaseAudioDevice(ptr noundef %.pre)
  call void @llvm.lifetime.end.p0(i64 8, ptr nonnull %3) #14
  br label %12

12:                                               ; preds = %11, %5
  %.06 = phi i1 [ %6, %5 ], [ %.not, %11 ]
  ret i1 %.06
}